; Function Attrs: mustprogress null_pointer_is_valid sspstrong uwtable
define void @_ZN18FollowStreamDialog34subStreamNumberSpinBoxValueChangedEi(ptr noundef align 8 dereferenceable_or_null(452) %0, i32 noundef %1) #2 align 2 personality ptr @__gxx_personality_v0 {
  %3 = alloca i32, align 4
  %4 = alloca %class.QString, align 8
  %5 = getelementptr inbounds nuw i8, ptr %0, i64 80
  %6 = load i8, ptr %5, align 8, !range !54, !noundef !55
  %7 = trunc nuw i8 %6 to i1
  br i1 %7, label %64, label %8

8:                                                ; preds = %2
  %9 = getelementptr inbounds nuw i8, ptr %0, i64 144
  %10 = load ptr, ptr %9, align 8
  %11 = getelementptr inbounds nuw i8, ptr %10, i64 96
  %12 = load ptr, ptr %11, align 8
  %13 = tail call noundef zeroext i1 @_ZN7QObject12blockSignalsEb(ptr noundef align 8 dereferenceable_or_null(16) %12, i1 noundef zeroext true) #29
  %14 = load ptr, ptr %9, align 8
  %15 = getelementptr inbounds nuw i8, ptr %14, i64 96
  %16 = load ptr, ptr %15, align 8
  %17 = tail call noundef i32 @_ZNK8QSpinBox5valueEv(ptr noundef align 8 dereferenceable_or_null(40) %16)
  %18 = load ptr, ptr %9, align 8
  %19 = getelementptr inbounds nuw i8, ptr %18, i64 96
  %20 = load ptr, ptr %19, align 8
  %21 = tail call noundef zeroext i1 @_ZN7QObject12blockSignalsEb(ptr noundef align 8 dereferenceable_or_null(16) %20, i1 noundef zeroext false) #29
  %22 = getelementptr inbounds nuw i8, ptr %0, i64 320
  %23 = load ptr, ptr %22, align 8
  %24 = tail call ptr @get_follow_sub_stream_id_func(ptr noundef %23)
  %25 = icmp eq ptr %24, null
  br i1 %25, label %64, label %26

26:                                               ; preds = %8
  call void @llvm.lifetime.start.p0(i64 4, ptr nonnull %3) #29
  store i32 %1, ptr %3, align 4
  %27 = icmp slt i32 %1, 0
  br i1 %27, label %.thread, label %28

.thread:                                          ; preds = %26
  store i32 0, ptr %3, align 4
  br label %38

28:                                               ; preds = %26
  %29 = getelementptr inbounds nuw i8, ptr %0, i64 448
  %30 = load i32, ptr %29, align 8
  %31 = icmp slt i32 %30, %1
  br i1 %31, label %32, label %35

32:                                               ; preds = %28
  %33 = call noundef zeroext i1 %24(i32 noundef %17, i32 noundef %1, i1 noundef zeroext false, ptr noundef nonnull %3)
  %34 = load i32, ptr %3, align 4
  br i1 %33, label %38, label %63

35:                                               ; preds = %28
  %36 = call noundef zeroext i1 %24(i32 noundef %17, i32 noundef %1, i1 noundef zeroext true, ptr noundef nonnull %3)
  %37 = load i32, ptr %3, align 4
  br i1 %36, label %38, label %63

38:                                               ; preds = %32, %.thread, %35
  %39 = phi i32 [ 0, %.thread ], [ %37, %35 ], [ %34, %32 ]
  %40 = getelementptr inbounds nuw i8, ptr %0, i64 328
  %41 = load ptr, ptr %40, align 8
  store ptr %41, ptr %4, align 8
  %42 = getelementptr inbounds nuw i8, ptr %4, i64 8
  %43 = getelementptr inbounds nuw i8, ptr %0, i64 336
  %44 = load ptr, ptr %43, align 8
  store ptr %44, ptr %42, align 8
  %45 = getelementptr inbounds nuw i8, ptr %4, i64 16
  %46 = getelementptr inbounds nuw i8, ptr %0, i64 344
  %47 = load i64, ptr %46, align 8
  store i64 %47, ptr %45, align 8
  %.not.i.i.i = icmp eq ptr %41, null
  br i1 %.not.i.i.i, label %_ZN7QStringC2ERKS_.exit, label %48

48:                                               ; preds = %38
  %49 = atomicrmw add ptr %41, i32 1 seq_cst, align 4
  br label %_ZN7QStringC2ERKS_.exit

_ZN7QStringC2ERKS_.exit:                          ; preds = %38, %48
  %50 = invoke noundef zeroext i1 @_ZN18FollowStreamDialog6followE7QStringbjj(ptr noundef align 8 dereferenceable_or_null(452) %0, ptr noundef nonnull %4, i1 noundef zeroext true, i32 noundef %17, i32 noundef %39)
          to label %51 unwind label %57

51:                                               ; preds = %_ZN7QStringC2ERKS_.exit
  %52 = load ptr, ptr %4, align 8
  %.not.i.i.i16 = icmp eq ptr %52, null
  br i1 %.not.i.i.i16, label %_ZN7QStringD2Ev.exit, label %_ZN17QArrayDataPointerIDsE5derefEv.exit.i.i

_ZN17QArrayDataPointerIDsE5derefEv.exit.i.i:      ; preds = %51
  %53 = atomicrmw sub ptr %52, i32 1 seq_cst, align 4
  %.not.i.i = icmp eq i32 %53, 1
  br i1 %.not.i.i, label %54, label %_ZN7QStringD2Ev.exit

54:                                               ; preds = %_ZN17QArrayDataPointerIDsE5derefEv.exit.i.i
  %55 = load ptr, ptr %4, align 8
  call void @_ZN10QArrayData10deallocateEPS_xx(ptr noundef %55, i64 noundef 2, i64 noundef 8) #29
  br label %_ZN7QStringD2Ev.exit

_ZN7QStringD2Ev.exit:                             ; preds = %51, %_ZN17QArrayDataPointerIDsE5derefEv.exit.i.i, %54
  %56 = getelementptr inbounds nuw i8, ptr %0, i64 448
  store i32 %39, ptr %56, align 8
  br label %63

57:                                               ; preds = %_ZN7QStringC2ERKS_.exit
  %58 = landingpad { ptr, i32 }
          cleanup
  %59 = load ptr, ptr %4, align 8
  %.not.i.i.i17 = icmp eq ptr %59, null
  br i1 %.not.i.i.i17, label %_ZN7QStringD2Ev.exit20, label %_ZN17QArrayDataPointerIDsE5derefEv.exit.i.i18

_ZN17QArrayDataPointerIDsE5derefEv.exit.i.i18:    ; preds = %57
  %60 = atomicrmw sub ptr %59, i32 1 seq_cst, align 4
  %.not.i.i19 = icmp eq i32 %60, 1
  br i1 %.not.i.i19, label %61, label %_ZN7QStringD2Ev.exit20

61:                                               ; preds = %_ZN17QArrayDataPointerIDsE5derefEv.exit.i.i18
  %62 = load ptr, ptr %4, align 8
  call void @_ZN10QArrayData10deallocateEPS_xx(ptr noundef %62, i64 noundef 2, i64 noundef 8) #29
  br label %_ZN7QStringD2Ev.exit20

_ZN7QStringD2Ev.exit20:                           ; preds = %57, %_ZN17QArrayDataPointerIDsE5derefEv.exit.i.i18, %61
  call void @llvm.lifetime.end.p0(i64 4, ptr nonnull %3) #29
  resume { ptr, i32 } %58

63:                                               ; preds = %32, %_ZN7QStringD2Ev.exit, %35
  call void @llvm.lifetime.end.p0(i64 4, ptr nonnull %3) #29
  br label %64

64:                                               ; preds = %63, %8, %2
  ret void
}